; Function Attrs: nounwind uwtable
define internal ptr @getargs_et_hash(ptr readnone captures(none) %0, ptr noundef %1) #0 {
  %3 = alloca ptr, align 8
  %4 = alloca ptr, align 8
  %5 = alloca ptr, align 8
  %6 = alloca ptr, align 8
  %7 = alloca i64, align 8
  call void @llvm.lifetime.start.p0(i64 8, ptr nonnull %3) #7
  call void @llvm.lifetime.start.p0(i64 8, ptr nonnull %4) #7
  store ptr null, ptr %4, align 8, !tbaa !17
  call void @llvm.lifetime.start.p0(i64 8, ptr nonnull %5) #7
  store ptr null, ptr %5, align 8, !tbaa !19
  call void @llvm.lifetime.start.p0(i64 8, ptr nonnull %6) #7
  store ptr null, ptr %6, align 8, !tbaa !17
  call void @llvm.lifetime.start.p0(i64 8, ptr nonnull %7) #7
  %8 = call i32 (ptr, ptr, ...) @PyArg_ParseTuple(ptr noundef %1, ptr noundef nonnull @.str.61, ptr noundef nonnull %3, ptr noundef nonnull %4, ptr noundef nonnull %5) #7
  %.not = icmp eq i32 %8, 0
  br i1 %.not, label %46, label %9

9:                                                ; preds = %2
  %10 = load ptr, ptr %5, align 8, !tbaa !19
  %.not4 = icmp eq ptr %10, null
  br i1 %.not4, label %34, label %11

11:                                               ; preds = %9
  %12 = getelementptr i8, ptr %10, i64 8
  %.val.i = load ptr, ptr %12, align 8, !tbaa !20
  %.not.i.i = icmp eq ptr %.val.i, @PyByteArray_Type
  br i1 %.not.i.i, label %Py_SIZE.exit.i, label %PyObject_TypeCheck.exit.i

PyObject_TypeCheck.exit.i:                        ; preds = %11
  %13 = call i32 @PyType_IsSubtype(ptr noundef %.val.i, ptr noundef nonnull @PyByteArray_Type) #7
  %.not14.i = icmp eq i32 %13, 0
  br i1 %.not14.i, label %14, label %15

14:                                               ; preds = %PyObject_TypeCheck.exit.i
  call void @__assert_fail(ptr noundef nonnull @.str.63, ptr noundef nonnull @.str.64, i32 noundef 22, ptr noundef nonnull @__PRETTY_FUNCTION__.PyByteArray_AS_STRING) #8
  unreachable

15:                                               ; preds = %PyObject_TypeCheck.exit.i
  %.val.i.pr.i = load ptr, ptr %12, align 8, !tbaa !20
  %.not.i6.i = icmp eq ptr %.val.i.pr.i, @PyLong_Type
  br i1 %.not.i6.i, label %16, label %17

16:                                               ; preds = %15
  call void @__assert_fail(ptr noundef nonnull @.str.65, ptr noundef nonnull @.str.66, i32 noundef 282, ptr noundef nonnull @__PRETTY_FUNCTION__.Py_SIZE) #8
  unreachable

17:                                               ; preds = %15
  %.not3.i.i = icmp eq ptr %.val.i.pr.i, @PyBool_Type
  br i1 %.not3.i.i, label %18, label %Py_SIZE.exit.i

18:                                               ; preds = %17
  call void @__assert_fail(ptr noundef nonnull @.str.67, ptr noundef nonnull @.str.66, i32 noundef 283, ptr noundef nonnull @__PRETTY_FUNCTION__.Py_SIZE) #8
  unreachable

Py_SIZE.exit.i:                                   ; preds = %17, %11
  %19 = getelementptr inbounds nuw i8, ptr %10, i64 16
  %20 = load i64, ptr %19, align 8, !tbaa !23
  %.not5.i = icmp eq i64 %20, 0
  br i1 %.not5.i, label %PyByteArray_AS_STRING.exit, label %21

21:                                               ; preds = %Py_SIZE.exit.i
  %22 = getelementptr inbounds nuw i8, ptr %10, i64 40
  %23 = load ptr, ptr %22, align 8, !tbaa !26
  br label %PyByteArray_AS_STRING.exit

PyByteArray_AS_STRING.exit:                       ; preds = %Py_SIZE.exit.i, %21
  %.0.i = phi ptr [ %23, %21 ], [ @_PyByteArray_empty_string, %Py_SIZE.exit.i ]
  store ptr %.0.i, ptr %6, align 8, !tbaa !17
  %24 = load ptr, ptr %5, align 8, !tbaa !19
  %25 = getelementptr i8, ptr %24, i64 8
  %.val.i6 = load ptr, ptr %25, align 8, !tbaa !20
  %.not.i.i7 = icmp eq ptr %.val.i6, @PyByteArray_Type
  br i1 %.not.i.i7, label %PyByteArray_GET_SIZE.exit, label %PyObject_TypeCheck.exit.i8

PyObject_TypeCheck.exit.i8:                       ; preds = %PyByteArray_AS_STRING.exit
  %26 = call i32 @PyType_IsSubtype(ptr noundef %.val.i6, ptr noundef nonnull @PyByteArray_Type) #7
  %.not11.i = icmp eq i32 %26, 0
  br i1 %.not11.i, label %27, label %28

27:                                               ; preds = %PyObject_TypeCheck.exit.i8
  call void @__assert_fail(ptr noundef nonnull @.str.63, ptr noundef nonnull @.str.64, i32 noundef 31, ptr noundef nonnull @__PRETTY_FUNCTION__.PyByteArray_GET_SIZE) #8
  unreachable

28:                                               ; preds = %PyObject_TypeCheck.exit.i8
  %.val.i.pr.i9 = load ptr, ptr %25, align 8, !tbaa !20
  %.not.i3.i = icmp eq ptr %.val.i.pr.i9, @PyLong_Type
  br i1 %.not.i3.i, label %29, label %30

29:                                               ; preds = %28
  call void @__assert_fail(ptr noundef nonnull @.str.65, ptr noundef nonnull @.str.66, i32 noundef 282, ptr noundef nonnull @__PRETTY_FUNCTION__.Py_SIZE) #8
  unreachable

30:                                               ; preds = %28
  %.not3.i.i10 = icmp eq ptr %.val.i.pr.i9, @PyBool_Type
  br i1 %.not3.i.i10, label %31, label %PyByteArray_GET_SIZE.exit

31:                                               ; preds = %30
  call void @__assert_fail(ptr noundef nonnull @.str.67, ptr noundef nonnull @.str.66, i32 noundef 283, ptr noundef nonnull @__PRETTY_FUNCTION__.Py_SIZE) #8
  unreachable

PyByteArray_GET_SIZE.exit:                        ; preds = %PyByteArray_AS_STRING.exit, %30
  %32 = getelementptr inbounds nuw i8, ptr %24, i64 16
  %33 = load i64, ptr %32, align 8, !tbaa !23
  store i64 %33, ptr %7, align 8, !tbaa !28
  br label %34

34:                                               ; preds = %PyByteArray_GET_SIZE.exit, %9
  %35 = load ptr, ptr %3, align 8, !tbaa !12
  %36 = load ptr, ptr %4, align 8, !tbaa !17
  %37 = call i32 (ptr, ptr, ...) @PyArg_Parse(ptr noundef %35, ptr noundef nonnull @.str.69, ptr noundef %36, ptr noundef nonnull %6, ptr noundef nonnull %7) #7
  %.not5 = icmp eq i32 %37, 0
  br i1 %.not5, label %46, label %38

38:                                               ; preds = %34
  %39 = load ptr, ptr %6, align 8, !tbaa !17
  %40 = load i64, ptr %7, align 8, !tbaa !28
  %41 = call ptr @PyBytes_FromStringAndSize(ptr noundef %39, i64 noundef %40) #7
  %42 = load ptr, ptr %5, align 8, !tbaa !19
  %43 = icmp eq ptr %42, null
  br i1 %43, label %44, label %46

44:                                               ; preds = %38
  %45 = load ptr, ptr %6, align 8, !tbaa !17
  call void @PyMem_Free(ptr noundef %45) #7
  br label %46

46:                                               ; preds = %38, %44, %34, %2
  %.0 = phi ptr [ null, %2 ], [ null, %34 ], [ %41, %44 ], [ %41, %38 ]
  call void @llvm.lifetime.end.p0(i64 8, ptr nonnull %7) #7
  call void @llvm.lifetime.end.p0(i64 8, ptr nonnull %6) #7
  call void @llvm.lifetime.end.p0(i64 8, ptr nonnull %5) #7
  call void @llvm.lifetime.end.p0(i64 8, ptr nonnull %4) #7
  call void @llvm.lifetime.end.p0(i64 8, ptr nonnull %3) #7
  ret ptr %.0
}